target datalayout = "e-m:e-p270:32:32-p271:32:32-p272:64:64-i64:64-i128:128-f80:128-n8:16:32:64-S128"
target triple = "x86_64-pc-linux-gnu"

%class.Handle = type { ptr }
%class.BaseFrameStream = type { ptr, ptr, %class.Handle, i64 }
%class.JavaFrameStream = type <{ %class.BaseFrameStream, %class.vframeStream, i8, [7 x i8] }>
%class.vframeStream = type { %class.vframeStreamCommon }
%class.vframeStreamCommon = type { %class.frame, ptr, %class.RegisterMap, i32, i32, i32, i32, ptr, i32, ptr, i8, %class.Handle }
%class.frame = type { %union.anon.2, ptr, ptr, ptr, i32, i8, %union.anon.3, %union.anon.4 }
%union.anon.2 = type { ptr }
%union.anon.3 = type { ptr }
%union.anon.4 = type { ptr }
%class.RegisterMap = type <{ [609 x ptr], [10 x i64], i8, [7 x i8], ptr, %class.stackChunkHandle, i32, i8, i8, i8, i8 }>
%class.stackChunkHandle = type { %class.Handle }

; Function Attrs: mustprogress nounwind uwtable
define linkonce_odr hidden noundef ptr @_ZNK6Handle3objEv(ptr noundef nonnull align 8 dereferenceable(8) %0) #1 comdat align 2 {
  %2 = alloca ptr, align 8
  store ptr %0, ptr %2, align 8
  %3 = load ptr, ptr %2, align 8
  %4 = getelementptr inbounds %class.Handle, ptr %3, i32 0, i32 0
  %5 = load ptr, ptr %4, align 8
  %6 = icmp eq ptr %5, null
  br i1 %6, label %7, label %8

7:                                                ; preds = %1
  br label %12

8:                                                ; preds = %1
  %9 = getelementptr inbounds %class.Handle, ptr %3, i32 0, i32 0
  %10 = load ptr, ptr %9, align 8
  %11 = load ptr, ptr %10, align 8
  br label %12

12:                                               ; preds = %8, %7
  %13 = phi ptr [ null, %7 ], [ %11, %8 ]
  ret ptr %13
}

; Function Attrs: mustprogress nounwind uwtable
define linkonce_odr hidden noundef zeroext i1 @_ZN9StackWalk16need_method_infoEi(i32 noundef %0) #1 comdat align 2 {
  %2 = alloca i32, align 4
  store i32 %0, ptr %2, align 4
  %3 = load i32, ptr %2, align 4
  %4 = and i32 %3, 2
  %5 = icmp eq i32 %4, 0
  ret i1 %5
}

; Function Attrs: mustprogress nounwind uwtable
define linkonce_odr hidden noundef ptr @_ZNK6HandleclEv(ptr noundef nonnull align 8 dereferenceable(8) %0) #1 comdat align 2 {
  %2 = alloca ptr, align 8
  store ptr %0, ptr %2, align 8
  %3 = load ptr, ptr %2, align 8
  %4 = call noundef ptr @_ZNK6Handle3objEv(ptr noundef nonnull align 8 dereferenceable(8) %3)
  ret ptr %4
}

; Function Attrs: mustprogress nounwind uwtable
define linkonce_odr hidden noundef zeroext i1 @_ZNK6Handle7is_nullEv(ptr noundef nonnull align 8 dereferenceable(8) %0) #1 comdat align 2 {
  %2 = alloca ptr, align 8
  store ptr %0, ptr %2, align 8
  %3 = load ptr, ptr %2, align 8
  %4 = getelementptr inbounds %class.Handle, ptr %3, i32 0, i32 0
  %5 = load ptr, ptr %4, align 8
  %6 = icmp eq ptr %5, null
  ret i1 %6
}

; Function Attrs: mustprogress nounwind uwtable
define hidden void @_ZN15BaseFrameStreamC2EP10JavaThread6Handle(ptr noundef nonnull align 8 dereferenceable(32) %0, ptr noundef %1, ptr %2) unnamed_addr #1 align 2 {
  %4 = alloca %class.Handle, align 8
  %5 = alloca ptr, align 8
  %6 = alloca ptr, align 8
  %7 = getelementptr inbounds %class.Handle, ptr %4, i32 0, i32 0
  store ptr %2, ptr %7, align 8
  store ptr %0, ptr %5, align 8
  store ptr %1, ptr %6, align 8
  %8 = load ptr, ptr %5, align 8
  store ptr getelementptr inbounds inrange(-16, 56) ({ [9 x ptr] }, ptr @_ZTV15BaseFrameStream, i32 0, i32 0, i32 2), ptr %8, align 8
  %9 = getelementptr inbounds %class.BaseFrameStream, ptr %8, i32 0, i32 1
  %10 = load ptr, ptr %6, align 8
  store ptr %10, ptr %9, align 8
  %11 = getelementptr inbounds %class.BaseFrameStream, ptr %8, i32 0, i32 2
  call void @llvm.memcpy.p0.p0.i64(ptr align 8 %11, ptr align 8 %4, i64 8, i1 false)
  %12 = getelementptr inbounds %class.BaseFrameStream, ptr %8, i32 0, i32 3
  store i64 0, ptr %12, align 8
  ret void
}

; Function Attrs: mustprogress nounwind uwtable
define hidden void @_ZN15JavaFrameStreamC2EP10JavaThreadi6HandleS2_(ptr noundef nonnull align 8 dereferenceable(5137) %0, ptr noundef %1, i32 noundef %2, ptr %3, ptr %4) unnamed_addr #1 align 2 {
  %6 = alloca %class.Handle, align 8
  %7 = alloca %class.Handle, align 8
  %8 = alloca ptr, align 8
  %9 = alloca ptr, align 8
  %10 = alloca i32, align 4
  %11 = alloca %class.Handle, align 8
  %12 = alloca %class.Handle, align 8
  %13 = alloca %class.Handle, align 8
  %14 = getelementptr inbounds %class.Handle, ptr %6, i32 0, i32 0
  store ptr %3, ptr %14, align 8
  %15 = getelementptr inbounds %class.Handle, ptr %7, i32 0, i32 0
  store ptr %4, ptr %15, align 8
  store ptr %0, ptr %8, align 8
  store ptr %1, ptr %9, align 8
  store i32 %2, ptr %10, align 4
  %16 = load ptr, ptr %8, align 8
  %17 = load ptr, ptr %9, align 8
  call void @llvm.memcpy.p0.p0.i64(ptr align 8 %11, ptr align 8 %7, i64 8, i1 false)
  %18 = getelementptr inbounds %class.Handle, ptr %11, i32 0, i32 0
  %19 = load ptr, ptr %18, align 8
  call void @_ZN15BaseFrameStreamC2EP10JavaThread6Handle(ptr noundef nonnull align 8 dereferenceable(32) %16, ptr noundef %17, ptr %19)
  store ptr getelementptr inbounds inrange(-16, 56) ({ [9 x ptr] }, ptr @_ZTV15JavaFrameStream, i32 0, i32 0, i32 2), ptr %16, align 8
  %20 = getelementptr inbounds %class.JavaFrameStream, ptr %16, i32 0, i32 1
  %21 = call noundef zeroext i1 @_ZNK6Handle7is_nullEv(ptr noundef nonnull align 8 dereferenceable(8) %7)
  br i1 %21, label %22, label %26

22:                                               ; preds = %5
  %23 = load ptr, ptr %9, align 8
  call void @llvm.memcpy.p0.p0.i64(ptr align 8 %12, ptr align 8 %6, i64 8, i1 false)
  %24 = getelementptr inbounds %class.Handle, ptr %12, i32 0, i32 0
  %25 = load ptr, ptr %24, align 8
  call void @_ZN12vframeStreamC1EP10JavaThread6Handleb(ptr noundef nonnull align 8 dereferenceable(5104) %20, ptr noundef %23, ptr %25, i1 noundef zeroext false)
  br label %30

26:                                               ; preds = %5
  %27 = call noundef ptr @_ZNK6HandleclEv(ptr noundef nonnull align 8 dereferenceable(8) %7)
  call void @llvm.memcpy.p0.p0.i64(ptr align 8 %13, ptr align 8 %6, i64 8, i1 false)
  %28 = getelementptr inbounds %class.Handle, ptr %13, i32 0, i32 0
  %29 = load ptr, ptr %28, align 8
  call void @_ZN12vframeStreamC1EP7oopDesc6Handle(ptr noundef nonnull align 8 dereferenceable(5104) %20, ptr noundef %27, ptr %29)
  br label %30

30:                                               ; preds = %26, %22
  %31 = load i32, ptr %10, align 4
  %32 = call noundef zeroext i1 @_ZN9StackWalk16need_method_infoEi(i32 noundef %31)
  %33 = getelementptr inbounds %class.JavaFrameStream, ptr %16, i32 0, i32 2
  %34 = zext i1 %32 to i8
  store i8 %34, ptr %33, align 8
  ret void
}