; Function Attrs: mustprogress nounwind uwtable
define hidden void @_ZN15JavaFrameStreamC2EP10JavaThreadi6HandleS2_(ptr noundef nonnull align 8 dereferenceable(5137) %0, ptr noundef %1, i32 noundef %2, ptr %3, ptr %4) unnamed_addr #2 align 2 {
  %6 = getelementptr inbounds i8, ptr %0, i64 8
  store ptr %1, ptr %6, align 8
  %7 = getelementptr inbounds i8, ptr %0, i64 16
  store ptr %4, ptr %7, align 8
  %8 = getelementptr inbounds i8, ptr %0, i64 24
  store i64 0, ptr %8, align 8
  store ptr getelementptr inbounds inrange(-16, 56) (i8, ptr @_ZTV15JavaFrameStream, i64 16), ptr %0, align 8
  %9 = getelementptr inbounds i8, ptr %0, i64 32
  %10 = icmp eq ptr %4, null
  br i1 %10, label %11, label %_ZNK6HandleclEv.exit

11:                                               ; preds = %5
  tail call void @_ZN12vframeStreamC1EP10JavaThread6Handleb(ptr noundef nonnull align 8 dereferenceable(5104) %9, ptr noundef %1, ptr %3, i1 noundef zeroext false) #14
  br label %13

_ZNK6HandleclEv.exit:                             ; preds = %5
  %12 = load ptr, ptr %4, align 8
  tail call void @_ZN12vframeStreamC1EP7oopDesc6Handle(ptr noundef nonnull align 8 dereferenceable(5104) %9, ptr noundef %12, ptr %3) #14
  br label %13

13:                                               ; preds = %_ZNK6HandleclEv.exit, %11
  %14 = and i32 %2, 2
  %15 = icmp eq i32 %14, 0
  %16 = getelementptr inbounds i8, ptr %0, i64 5136
  %17 = zext i1 %15 to i8
  store i8 %17, ptr %16, align 8
  ret void
}